target datalayout = "e-m:e-p270:32:32-p271:32:32-p272:64:64-i64:64-i128:128-f80:128-n8:16:32:64-S128"
target triple = "x86_64-pc-linux-gnu"

%struct.dirent = type { i64, i64, i16, i8, [256 x i8] }

@stderr = external global ptr, align 8
@.str.23 = private unnamed_addr constant [33 x i8] c"Unable to open directory %s: %s\0A\00", align 1
@.str.24 = private unnamed_addr constant [5 x i8] c"tmp_\00", align 1
@.str.25 = private unnamed_addr constant [6 x i8] c"%s/%s\00", align 1

; Function Attrs: nounwind uwtable
define internal void @remove_temporary_files(ptr noundef %0) #0 {
  %2 = alloca ptr, align 8
  %3 = alloca ptr, align 8
  %4 = alloca ptr, align 8
  %5 = alloca i32, align 4
  store ptr %0, ptr %2, align 8, !tbaa !11
  call void @llvm.lifetime.start.p0(i64 8, ptr %3) #10
  call void @llvm.lifetime.start.p0(i64 8, ptr %4) #10
  %6 = load ptr, ptr %2, align 8, !tbaa !11
  %7 = call ptr @opendir(ptr noundef %6)
  store ptr %7, ptr %3, align 8, !tbaa !45
  %8 = load ptr, ptr %3, align 8, !tbaa !45
  %9 = icmp ne ptr %8, null
  br i1 %9, label %22, label %10

10:                                               ; preds = %1
  %11 = call ptr @__errno_location() #12
  %12 = load i32, ptr %11, align 4, !tbaa !4
  %13 = icmp ne i32 %12, 2
  br i1 %13, label %14, label %21

14:                                               ; preds = %10
  %15 = load ptr, ptr @stderr, align 8, !tbaa !43
  %16 = load ptr, ptr %2, align 8, !tbaa !11
  %17 = call ptr @__errno_location() #12
  %18 = load i32, ptr %17, align 4, !tbaa !4
  %19 = call ptr @strerror(i32 noundef %18) #10
  %20 = call i32 (ptr, ptr, ...) @fprintf(ptr noundef %15, ptr noundef @.str.23, ptr noundef %16, ptr noundef %19) #10
  br label %21

21:                                               ; preds = %14, %10
  store i32 1, ptr %5, align 4
  br label %44

22:                                               ; preds = %1
  br label %23

23:                                               ; preds = %40, %22
  %24 = load ptr, ptr %3, align 8, !tbaa !45
  %25 = call ptr @readdir64(ptr noundef %24)
  store ptr %25, ptr %4, align 8, !tbaa !47
  %26 = icmp ne ptr %25, null
  br i1 %26, label %27, label %41

27:                                               ; preds = %23
  %28 = load ptr, ptr %4, align 8, !tbaa !47
  %29 = getelementptr inbounds nuw %struct.dirent, ptr %28, i32 0, i32 4
  %30 = getelementptr inbounds [256 x i8], ptr %29, i64 0, i64 0
  %31 = call i32 @starts_with(ptr noundef %30, ptr noundef @.str.24)
  %32 = icmp ne i32 %31, 0
  br i1 %32, label %33, label %40

33:                                               ; preds = %27
  %34 = load ptr, ptr %2, align 8, !tbaa !11
  %35 = load ptr, ptr %4, align 8, !tbaa !47
  %36 = getelementptr inbounds nuw %struct.dirent, ptr %35, i32 0, i32 4
  %37 = getelementptr inbounds [256 x i8], ptr %36, i64 0, i64 0
  %38 = call ptr (ptr, ...) @mkpath(ptr noundef @.str.25, ptr noundef %34, ptr noundef %37)
  %39 = call i32 @prune_tmp_file(ptr noundef %38)
  br label %40

40:                                               ; preds = %33, %27
  br label %23, !llvm.loop !49

41:                                               ; preds = %23
  %42 = load ptr, ptr %3, align 8, !tbaa !45
  %43 = call i32 @closedir(ptr noundef %42)
  store i32 0, ptr %5, align 4
  br label %44

44:                                               ; preds = %41, %21
  call void @llvm.lifetime.end.p0(i64 8, ptr %4) #10
  call void @llvm.lifetime.end.p0(i64 8, ptr %3) #10
  %45 = load i32, ptr %5, align 4
  switch i32 %45, label %47 [
    i32 0, label %46
    i32 1, label %46
  ]

46:                                               ; preds = %44, %44
  ret void

47:                                               ; preds = %44
  unreachable
}