; Function Attrs: nounwind uwtable
define internal fastcc void @remove_temporary_files(ptr noundef %0) unnamed_addr #0 {
  %2 = tail call ptr @opendir(ptr noundef %0)
  %.not = icmp eq ptr %2, null
  br i1 %.not, label %4, label %.preheader

.preheader:                                       ; preds = %1
  %3 = tail call ptr @readdir64(ptr noundef nonnull %2) #12
  %.not1012 = icmp eq ptr %3, null
  br i1 %.not1012, label %._crit_edge, label %.lr.ph

4:                                                ; preds = %1
  %5 = tail call ptr @__errno_location() #15
  %6 = load i32, ptr %5, align 4, !tbaa !4
  %.not9 = icmp eq i32 %6, 2
  br i1 %.not9, label %19, label %7

7:                                                ; preds = %4
  %8 = load ptr, ptr @stderr, align 8, !tbaa !31
  %9 = tail call ptr @strerror(i32 noundef %6) #12
  %10 = tail call i32 (ptr, ptr, ...) @fprintf(ptr noundef %8, ptr noundef nonnull @.str.23, ptr noundef %0, ptr noundef %9) #14
  br label %19

.lr.ph:                                           ; preds = %.preheader, %16
  %11 = phi ptr [ %17, %16 ], [ %3, %.preheader ]
  %12 = getelementptr inbounds nuw i8, ptr %11, i64 19
  %13 = tail call i32 @starts_with(ptr noundef nonnull %12, ptr noundef nonnull @.str.24) #12
  %.not11 = icmp eq i32 %13, 0
  br i1 %.not11, label %16, label %14

14:                                               ; preds = %.lr.ph
  %15 = tail call ptr (ptr, ...) @mkpath(ptr noundef nonnull @.str.25, ptr noundef %0, ptr noundef nonnull %12) #12
  tail call fastcc void @prune_tmp_file(ptr noundef %15)
  br label %16

16:                                               ; preds = %14, %.lr.ph
  %17 = tail call ptr @readdir64(ptr noundef nonnull %2) #12
  %.not10 = icmp eq ptr %17, null
  br i1 %.not10, label %._crit_edge, label %.lr.ph, !llvm.loop !33

._crit_edge:                                      ; preds = %16, %.preheader
  %18 = tail call i32 @closedir(ptr noundef nonnull %2)
  br label %19

19:                                               ; preds = %4, %7, %._crit_edge
  ret void
}